target datalayout = "e-m:e-p270:32:32-p271:32:32-p272:64:64-i64:64-i128:128-f80:128-n8:16:32:64-S128"
target triple = "x86_64-pc-linux-gnu"

%class.ciKlass = type <{ %class.ciType.base, [7 x i8], ptr, i32, [4 x i8] }>
%class.ciType.base = type <{ %class.ciMetadata, i8 }>
%class.ciMetadata = type { %class.ciBaseObject.base, ptr }
%class.ciBaseObject.base = type <{ ptr, i32 }>

; Function Attrs: mustprogress nounwind uwtable
define hidden void @_ZN7ciKlassC2EP5KlassP8ciSymbol(ptr noundef nonnull align 8 dereferenceable(44) %0, ptr noundef %1, ptr noundef %2) unnamed_addr #1 align 2 {
  %4 = alloca ptr, align 8
  %5 = alloca ptr, align 8
  %6 = alloca ptr, align 8
  store ptr %0, ptr %4, align 8
  store ptr %1, ptr %5, align 8
  store ptr %2, ptr %6, align 8
  %7 = load ptr, ptr %4, align 8
  %8 = load ptr, ptr %5, align 8
  call void @_ZN6ciTypeC2EP5Klass(ptr noundef nonnull align 8 dereferenceable(25) %7, ptr noundef %8)
  store ptr getelementptr inbounds inrange(-16, 216) ({ [29 x ptr] }, ptr @_ZTV7ciKlass, i32 0, i32 0, i32 2), ptr %7, align 8
  %9 = load ptr, ptr %6, align 8
  %10 = getelementptr inbounds %class.ciKlass, ptr %7, i32 0, i32 2
  store ptr %9, ptr %10, align 8
  %11 = getelementptr inbounds %class.ciKlass, ptr %7, i32 0, i32 3
  store i32 0, ptr %11, align 8
  ret void
}